target datalayout = "e-m:e-p270:32:32-p271:32:32-p272:64:64-i64:64-i128:128-f80:128-n8:16:32:64-S128"
target triple = "x86_64-pc-linux-gnu"

; Function Attrs: nounwind uwtable
define hidden i32 @timelib_strncasecmp(ptr noundef %0, ptr noundef %1, i64 noundef %2) #0 {
  %4 = alloca i32, align 4
  %5 = alloca ptr, align 8
  %6 = alloca ptr, align 8
  %7 = alloca i64, align 8
  %8 = alloca i64, align 8
  %9 = alloca i64, align 8
  %10 = alloca i64, align 8
  %11 = alloca i32, align 4
  %12 = alloca i32, align 4
  store ptr %0, ptr %5, align 8
  store ptr %1, ptr %6, align 8
  store i64 %2, ptr %7, align 8
  %13 = load ptr, ptr %5, align 8
  %14 = call i64 @strlen(ptr noundef %13) #7
  store i64 %14, ptr %9, align 8
  %15 = load ptr, ptr %6, align 8
  %16 = call i64 @strlen(ptr noundef %15) #7
  store i64 %16, ptr %10, align 8
  %17 = load ptr, ptr %5, align 8
  %18 = load ptr, ptr %6, align 8
  %19 = icmp eq ptr %17, %18
  br i1 %19, label %20, label %21

20:                                               ; preds = %3
  store i32 0, ptr %4, align 4
  br label %95

21:                                               ; preds = %3
  %22 = load i64, ptr %7, align 8
  %23 = load i64, ptr %9, align 8
  %24 = load i64, ptr %10, align 8
  %25 = icmp ult i64 %23, %24
  br i1 %25, label %26, label %28

26:                                               ; preds = %21
  %27 = load i64, ptr %9, align 8
  br label %30

28:                                               ; preds = %21
  %29 = load i64, ptr %10, align 8
  br label %30

30:                                               ; preds = %28, %26
  %31 = phi i64 [ %27, %26 ], [ %29, %28 ]
  %32 = icmp ult i64 %22, %31
  br i1 %32, label %33, label %35

33:                                               ; preds = %30
  %34 = load i64, ptr %7, align 8
  br label %45

35:                                               ; preds = %30
  %36 = load i64, ptr %9, align 8
  %37 = load i64, ptr %10, align 8
  %38 = icmp ult i64 %36, %37
  br i1 %38, label %39, label %41

39:                                               ; preds = %35
  %40 = load i64, ptr %9, align 8
  br label %43

41:                                               ; preds = %35
  %42 = load i64, ptr %10, align 8
  br label %43

43:                                               ; preds = %41, %39
  %44 = phi i64 [ %40, %39 ], [ %42, %41 ]
  br label %45

45:                                               ; preds = %43, %33
  %46 = phi i64 [ %34, %33 ], [ %44, %43 ]
  store i64 %46, ptr %8, align 8
  br label %47

47:                                               ; preds = %73, %45
  %48 = load i64, ptr %8, align 8
  %49 = add i64 %48, -1
  store i64 %49, ptr %8, align 8
  %50 = icmp ne i64 %48, 0
  br i1 %50, label %51, label %74

51:                                               ; preds = %47
  %52 = load ptr, ptr %5, align 8
  %53 = getelementptr inbounds i8, ptr %52, i32 1
  store ptr %53, ptr %5, align 8
  %54 = load i8, ptr %52, align 1
  %55 = zext i8 %54 to i64
  %56 = getelementptr inbounds [256 x i8], ptr @timelib_tolower_map, i64 0, i64 %55
  %57 = load i8, ptr %56, align 1
  %58 = zext i8 %57 to i32
  store i32 %58, ptr %11, align 4
  %59 = load ptr, ptr %6, align 8
  %60 = getelementptr inbounds i8, ptr %59, i32 1
  store ptr %60, ptr %6, align 8
  %61 = load i8, ptr %59, align 1
  %62 = zext i8 %61 to i64
  %63 = getelementptr inbounds [256 x i8], ptr @timelib_tolower_map, i64 0, i64 %62
  %64 = load i8, ptr %63, align 1
  %65 = zext i8 %64 to i32
  store i32 %65, ptr %12, align 4
  %66 = load i32, ptr %11, align 4
  %67 = load i32, ptr %12, align 4
  %68 = icmp ne i32 %66, %67
  br i1 %68, label %69, label %73

69:                                               ; preds = %51
  %70 = load i32, ptr %11, align 4
  %71 = load i32, ptr %12, align 4
  %72 = sub nsw i32 %70, %71
  store i32 %72, ptr %4, align 4
  br label %95

73:                                               ; preds = %51
  br label %47

74:                                               ; preds = %47
  %75 = load i64, ptr %7, align 8
  %76 = load i64, ptr %9, align 8
  %77 = icmp ult i64 %75, %76
  br i1 %77, label %78, label %80

78:                                               ; preds = %74
  %79 = load i64, ptr %7, align 8
  br label %82

80:                                               ; preds = %74
  %81 = load i64, ptr %9, align 8
  br label %82

82:                                               ; preds = %80, %78
  %83 = phi i64 [ %79, %78 ], [ %81, %80 ]
  %84 = load i64, ptr %7, align 8
  %85 = load i64, ptr %10, align 8
  %86 = icmp ult i64 %84, %85
  br i1 %86, label %87, label %89

87:                                               ; preds = %82
  %88 = load i64, ptr %7, align 8
  br label %91

89:                                               ; preds = %82
  %90 = load i64, ptr %10, align 8
  br label %91

91:                                               ; preds = %89, %87
  %92 = phi i64 [ %88, %87 ], [ %90, %89 ]
  %93 = sub i64 %83, %92
  %94 = trunc i64 %93 to i32
  store i32 %94, ptr %4, align 4
  br label %95

95:                                               ; preds = %91, %69, %20
  %96 = load i32, ptr %4, align 4
  ret i32 %96
}