; Function Attrs: nofree nounwind memory(read, inaccessiblemem: none) uwtable
define hidden i32 @timelib_strncasecmp(ptr noundef readonly %0, ptr noundef readonly %1, i64 noundef %2) local_unnamed_addr #12 {
  %4 = tail call i64 @strlen(ptr noundef nonnull dereferenceable(1) %0) #19
  %5 = tail call i64 @strlen(ptr noundef nonnull dereferenceable(1) %1) #19
  %6 = icmp eq ptr %0, %1
  br i1 %6, label %31, label %7

7:                                                ; preds = %3
  %8 = tail call i64 @llvm.umin.i64(i64 %4, i64 %5)
  %. = tail call i64 @llvm.umin.i64(i64 %8, i64 %2)
  br label %9

9:                                                ; preds = %10, %7
  %.031 = phi i64 [ %., %7 ], [ %11, %10 ]
  %.030 = phi ptr [ %1, %7 ], [ %17, %10 ]
  %.029 = phi ptr [ %0, %7 ], [ %12, %10 ]
  %.not = icmp eq i64 %.031, 0
  br i1 %.not, label %26, label %10

10:                                               ; preds = %9
  %11 = add i64 %.031, -1
  %12 = getelementptr inbounds i8, ptr %.029, i64 1
  %13 = load i8, ptr %.029, align 1
  %14 = zext i8 %13 to i64
  %15 = getelementptr inbounds [256 x i8], ptr @timelib_tolower_map, i64 0, i64 %14
  %16 = load i8, ptr %15, align 1
  %17 = getelementptr inbounds i8, ptr %.030, i64 1
  %18 = load i8, ptr %.030, align 1
  %19 = zext i8 %18 to i64
  %20 = getelementptr inbounds [256 x i8], ptr @timelib_tolower_map, i64 0, i64 %19
  %21 = load i8, ptr %20, align 1
  %.not38 = icmp eq i8 %16, %21
  br i1 %.not38, label %9, label %22

22:                                               ; preds = %10
  %23 = zext i8 %21 to i32
  %24 = zext i8 %16 to i32
  %25 = sub nsw i32 %24, %23
  br label %31

26:                                               ; preds = %9
  %27 = tail call i64 @llvm.umin.i64(i64 %4, i64 %2)
  %28 = tail call i64 @llvm.umin.i64(i64 %5, i64 %2)
  %29 = sub i64 %27, %28
  %30 = trunc i64 %29 to i32
  br label %31

31:                                               ; preds = %3, %26, %22
  %.0 = phi i32 [ %25, %22 ], [ %30, %26 ], [ 0, %3 ]
  ret i32 %.0
}